; Function Attrs: mustprogress uwtable
define hidden void @_ZN3sls12arith_plugin16reset_statisticsEv(ptr noundef nonnull readonly align 8 captures(none) dereferenceable(64) %0) unnamed_addr #3 align 2 {
  %2 = getelementptr inbounds nuw i8, ptr %0, i64 40
  %3 = load ptr, ptr %2, align 8, !tbaa !51
  %.not = icmp eq ptr %3, null
  br i1 %.not, label %8, label %4

4:                                                ; preds = %1
  %5 = load ptr, ptr %3, align 8, !tbaa !3
  %6 = getelementptr inbounds nuw i8, ptr %5, i64 152
  %7 = load ptr, ptr %6, align 8
  tail call void %7(ptr noundef nonnull align 8 dereferenceable(792) %3)
  br label %8

8:                                                ; preds = %4, %1
  %9 = getelementptr inbounds nuw i8, ptr %0, i64 32
  %10 = load ptr, ptr %9, align 8, !tbaa !48
  %.not1 = icmp eq ptr %10, null
  br i1 %.not1, label %15, label %11

11:                                               ; preds = %8
  %12 = load ptr, ptr %10, align 8, !tbaa !3
  %13 = getelementptr inbounds nuw i8, ptr %12, i64 152
  %14 = load ptr, ptr %13, align 8
  tail call void %14(ptr noundef nonnull align 8 dereferenceable(672) %10)
  br label %15

15:                                               ; preds = %11, %8
  ret void
}